; Function Attrs: nounwind uwtable
define range(i32 0, 2) i32 @lv_circle_buf_write(ptr noundef %0, ptr noundef %1) local_unnamed_addr #0 {
  %.not = icmp eq ptr %0, null
  br i1 %.not, label %.preheader, label %lv_circle_buf_is_full.exit

.preheader:                                       ; preds = %2, %.preheader
  br label %.preheader

lv_circle_buf_is_full.exit:                       ; preds = %2
  %3 = tail call i32 @lv_array_capacity(ptr noundef nonnull %0) #6
  %4 = getelementptr inbounds nuw i8, ptr %0, i64 28
  %5 = load i32, ptr %4, align 4, !tbaa !12
  %6 = getelementptr inbounds nuw i8, ptr %0, i64 24
  %7 = load i32, ptr %6, align 8, !tbaa !3
  %.neg.i.i = sub i32 %3, %5
  %8 = sub i32 0, %7
  %.not2.i = icmp eq i32 %.neg.i.i, %8
  br i1 %.not2.i, label %14, label %lv_circle_buf_capacity.exit

lv_circle_buf_capacity.exit:                      ; preds = %lv_circle_buf_is_full.exit
  %9 = tail call i32 @lv_array_capacity(ptr noundef nonnull %0) #6
  %10 = urem i32 %5, %9
  %11 = tail call i32 @lv_array_assign(ptr noundef nonnull %0, i32 noundef %10, ptr noundef %1) #6
  %12 = load i32, ptr %4, align 4, !tbaa !12
  %13 = add i32 %12, 1
  store i32 %13, ptr %4, align 4, !tbaa !12
  br label %14

14:                                               ; preds = %lv_circle_buf_is_full.exit, %lv_circle_buf_capacity.exit
  %.0 = phi i32 [ 1, %lv_circle_buf_capacity.exit ], [ 0, %lv_circle_buf_is_full.exit ]
  ret i32 %.0
}